; Function Attrs: mustprogress uwtable
define dso_local void @_ZN29btReducedDeformableBodySolver13predictMotionEf(ptr noundef nonnull align 8 dereferenceable(736) %this, float noundef %solverdt) unnamed_addr #3 align 2 {
entry:
  %m_size.i.i = getelementptr inbounds i8, ptr %this, i64 156
  %0 = load i32, ptr %m_size.i.i, align 4
  %cmp10.i = icmp sgt i32 %0, 0
  br i1 %cmp10.i, label %for.body.lr.ph.i, label %_ZN29btReducedDeformableBodySolver18applyExplicitForceEf.exit

for.body.lr.ph.i:                                 ; preds = %entry
  %m_data.i.i = getelementptr inbounds i8, ptr %this, i64 168
  %m_gravity.i = getelementptr inbounds i8, ptr %this, i64 620
  br label %for.body.i

for.body.i:                                       ; preds = %for.inc.i, %for.body.lr.ph.i
  %indvars.iv.i = phi i64 [ 0, %for.body.lr.ph.i ], [ %indvars.iv.next.i, %for.inc.i ]
  %1 = load ptr, ptr %m_data.i.i, align 8
  %arrayidx.i.i = getelementptr inbounds ptr, ptr %1, i64 %indvars.iv.i
  %2 = load ptr, ptr %arrayidx.i.i, align 8
  tail call void @_ZN23btReducedDeformableBody17applyRigidGravityERK9btVector3f(ptr noundef nonnull align 8 dereferenceable(3176) %2, ptr noundef nonnull align 4 dereferenceable(16) %m_gravity.i, float noundef %solverdt)
  %call4.i = tail call noundef zeroext i1 @_ZNK23btReducedDeformableBody17isReducedModesOFFEv(ptr noundef nonnull align 8 dereferenceable(3176) %2)
  br i1 %call4.i, label %for.inc.i, label %if.then.i

if.then.i:                                        ; preds = %for.body.i
  %m_reducedDofsBuffer.i = getelementptr inbounds i8, ptr %2, i64 2784
  tail call void @_ZN23btReducedDeformableBody24applyReducedElasticForceERK20btAlignedObjectArrayIfE(ptr noundef nonnull align 8 dereferenceable(3176) %2, ptr noundef nonnull align 8 dereferenceable(25) %m_reducedDofsBuffer.i)
  %m_reducedVelocityBuffer.i = getelementptr inbounds i8, ptr %2, i64 2848
  tail call void @_ZN23btReducedDeformableBody24applyReducedDampingForceERK20btAlignedObjectArrayIfE(ptr noundef nonnull align 8 dereferenceable(3176) %2, ptr noundef nonnull align 8 dereferenceable(25) %m_reducedVelocityBuffer.i)
  tail call void @_ZN23btReducedDeformableBody21updateReducedVelocityEf(ptr noundef nonnull align 8 dereferenceable(3176) %2, float noundef %solverdt)
  br label %for.inc.i

for.inc.i:                                        ; preds = %if.then.i, %for.body.i
  %indvars.iv.next.i = add nuw nsw i64 %indvars.iv.i, 1
  %3 = load i32, ptr %m_size.i.i, align 4
  %4 = sext i32 %3 to i64
  %cmp.i = icmp slt i64 %indvars.iv.next.i, %4
  br i1 %cmp.i, label %for.body.i, label %_ZN29btReducedDeformableBodySolver18applyExplicitForceEf.exit, !llvm.loop !38

_ZN29btReducedDeformableBodySolver18applyExplicitForceEf.exit: ; preds = %for.inc.i, %entry
  tail call void @_ZN29btReducedDeformableBodySolver29predictReduceDeformableMotionEf(ptr noundef nonnull align 8 dereferenceable(736) %this, float noundef %solverdt)
  ret void
}